; ModuleID = '20/165.c'
source_filename = "20/165.c"
target datalayout = "e-m:e-p270:32:32-p271:32:32-p272:64:64-i64:64-f80:128-n8:16:32:64-S128"
target triple = "x86_64-pc-linux-gnu"

@.str = private unnamed_addr constant [6 x i8] c"%s %s\00", align 1
@.str.1 = private unnamed_addr constant [4 x i8] c"%s\0A\00", align 1

; Function Attrs: noinline nounwind uwtable
define dso_local void @main() #0 {
  %1 = alloca [13 x i8], align 1
  %2 = alloca [3 x i8], align 1
  %3 = alloca i32, align 4
  %4 = alloca i32, align 4
  %5 = alloca i32, align 4
  %6 = alloca i32, align 4
  br label %7

7:                                                ; preds = %77, %0
  %8 = getelementptr inbounds [13 x i8], [13 x i8]* %1, i64 0, i64 0
  %9 = getelementptr inbounds [3 x i8], [3 x i8]* %2, i64 0, i64 0
  %10 = call i32 (i8*, ...) @__isoc99_scanf(i8* getelementptr inbounds ([6 x i8], [6 x i8]* @.str, i64 0, i64 0), i8* %8, i8* %9)
  %11 = icmp ne i32 %10, -1
  br i1 %11, label %12, label %84

12:                                               ; preds = %7
  %13 = getelementptr inbounds [13 x i8], [13 x i8]* %1, i64 0, i64 0
  %14 = call i64 @strlen(i8* %13) #3
  %15 = trunc i64 %14 to i32
  store i32 %15, i32* %3, align 4
  store i32 0, i32* %6, align 4
  store i32 0, i32* %4, align 4
  br label %16

16:                                               ; preds = %36, %12
  %17 = load i32, i32* %4, align 4
  %18 = load i32, i32* %3, align 4
  %19 = sub nsw i32 %18, 1
  %20 = icmp sle i32 %17, %19
  br i1 %20, label %21, label %39

21:                                               ; preds = %16
  %22 = load i32, i32* %4, align 4
  %23 = sext i32 %22 to i64
  %24 = getelementptr inbounds [13 x i8], [13 x i8]* %1, i64 0, i64 %23
  %25 = load i8, i8* %24, align 1
  %26 = sext i8 %25 to i32
  %27 = load i32, i32* %6, align 4
  %28 = sext i32 %27 to i64
  %29 = getelementptr inbounds [13 x i8], [13 x i8]* %1, i64 0, i64 %28
  %30 = load i8, i8* %29, align 1
  %31 = sext i8 %30 to i32
  %32 = icmp sgt i32 %26, %31
  br i1 %32, label %33, label %35

33:                                               ; preds = %21
  %34 = load i32, i32* %4, align 4
  store i32 %34, i32* %6, align 4
  br label %35

35:                                               ; preds = %33, %21
  br label %36

36:                                               ; preds = %35
  %37 = load i32, i32* %4, align 4
  %38 = add nsw i32 %37, 1
  store i32 %38, i32* %4, align 4
  br label %16

39:                                               ; preds = %16
  %40 = load i32, i32* %3, align 4
  store i32 %40, i32* %4, align 4
  br label %41

41:                                               ; preds = %55, %39
  %42 = load i32, i32* %4, align 4
  %43 = load i32, i32* %6, align 4
  %44 = add nsw i32 %43, 1
  %45 = icmp sge i32 %42, %44
  br i1 %45, label %46, label %58

46:                                               ; preds = %41
  %47 = load i32, i32* %4, align 4
  %48 = sext i32 %47 to i64
  %49 = getelementptr inbounds [13 x i8], [13 x i8]* %1, i64 0, i64 %48
  %50 = load i8, i8* %49, align 1
  %51 = load i32, i32* %4, align 4
  %52 = add nsw i32 %51, 3
  %53 = sext i32 %52 to i64
  %54 = getelementptr inbounds [13 x i8], [13 x i8]* %1, i64 0, i64 %53
  store i8 %50, i8* %54, align 1
  br label %55

55:                                               ; preds = %46
  %56 = load i32, i32* %4, align 4
  %57 = add nsw i32 %56, -1
  store i32 %57, i32* %4, align 4
  br label %41

58:                                               ; preds = %41
  %59 = load i32, i32* %6, align 4
  %60 = add nsw i32 %59, 1
  store i32 %60, i32* %4, align 4
  store i32 0, i32* %5, align 4
  br label %61

61:                                               ; preds = %72, %58
  %62 = load i32, i32* %5, align 4
  %63 = icmp sle i32 %62, 2
  br i1 %63, label %64, label %77

64:                                               ; preds = %61
  %65 = load i32, i32* %5, align 4
  %66 = sext i32 %65 to i64
  %67 = getelementptr inbounds [3 x i8], [3 x i8]* %2, i64 0, i64 %66
  %68 = load i8, i8* %67, align 1
  %69 = load i32, i32* %4, align 4
  %70 = sext i32 %69 to i64
  %71 = getelementptr inbounds [13 x i8], [13 x i8]* %1, i64 0, i64 %70
  store i8 %68, i8* %71, align 1
  br label %72

72:                                               ; preds = %64
  %73 = load i32, i32* %4, align 4
  %74 = add nsw i32 %73, 1
  store i32 %74, i32* %4, align 4
  %75 = load i32, i32* %5, align 4
  %76 = add nsw i32 %75, 1
  store i32 %76, i32* %5, align 4
  br label %61

77:                                               ; preds = %61
  %78 = load i32, i32* %3, align 4
  %79 = add nsw i32 %78, 3
  %80 = sext i32 %79 to i64
  %81 = getelementptr inbounds [13 x i8], [13 x i8]* %1, i64 0, i64 %80
  store i8 0, i8* %81, align 1
  %82 = getelementptr inbounds [13 x i8], [13 x i8]* %1, i64 0, i64 0
  %83 = call i32 (i8*, ...) @printf(i8* getelementptr inbounds ([4 x i8], [4 x i8]* @.str.1, i64 0, i64 0), i8* %82)
  br label %7

84:                                               ; preds = %7
  ret void
}

declare dso_local i32 @__isoc99_scanf(i8*, ...) #1

; Function Attrs: nounwind readonly
declare dso_local i64 @strlen(i8*) #2

declare dso_local i32 @printf(i8*, ...) #1


!llvm.module.flags = !{!0}
!llvm.ident = !{!1}

!0 = !{i32 1, !"wchar_size", i32 4}
!1 = !{!"clang version 10.0.0-4ubuntu1 "}
